; Function Attrs: mustprogress nofree norecurse nosync nounwind willreturn memory(argmem: read) uwtable
define { ptr, i64 } @_ZN7rocksdb24ParsePackedValueForValueERKNS_5SliceE(ptr noundef nonnull readonly align 8 captures(none) dereferenceable(16) %0) local_unnamed_addr #11 {
  %2 = load ptr, ptr %0, align 8, !tbaa !259
  %3 = getelementptr inbounds nuw i8, ptr %0, i64 8
  %4 = load i64, ptr %3, align 8, !tbaa !261
  %5 = add i64 %4, -8
  %.fca.0.insert = insertvalue { ptr, i64 } poison, ptr %2, 0
  %.fca.1.insert = insertvalue { ptr, i64 } %.fca.0.insert, i64 %5, 1
  ret { ptr, i64 } %.fca.1.insert
}